; Function Attrs: mustprogress uwtable
define hidden void @_ZN2cv5gimpl5proto23validate_input_meta_argERKNS_4util7variantIJNS2_9monostateENS_8GMatDescENS_11GScalarDescENS_10GArrayDescENS_11GOpaqueDescENS_10GFrameDescEEEE(ptr nocapture noundef nonnull readonly align 8 dereferenceable(56) %0) local_unnamed_addr #3 personality ptr @__gxx_personality_v0 {
  %2 = load i64, ptr %0, align 8
  %cond = icmp eq i64 %2, 1
  br i1 %cond, label %_ZN2cv4util3getINS_8GMatDescEJNS0_9monostateES2_NS_11GScalarDescENS_10GArrayDescENS_11GOpaqueDescENS_10GFrameDescEEEERKT_RKNS0_7variantIJDpT0_EEE.exit, label %4

_ZN2cv4util3getINS_8GMatDescEJNS0_9monostateES2_NS_11GScalarDescENS_10GArrayDescENS_11GOpaqueDescENS_10GFrameDescEEEERKT_RKNS0_7variantIJDpT0_EEE.exit: ; preds = %1
  %3 = getelementptr inbounds i8, ptr %0, i64 8
  tail call void @_ZN2cv5gimpl5proto19validate_input_metaERKNS_8GMatDescE(ptr noundef nonnull align 8 dereferenceable(48) %3)
  br label %4

4:                                                ; preds = %1, %_ZN2cv4util3getINS_8GMatDescEJNS0_9monostateES2_NS_11GScalarDescENS_10GArrayDescENS_11GOpaqueDescENS_10GFrameDescEEEERKT_RKNS0_7variantIJDpT0_EEE.exit
  ret void
}